Certificate:
    Data:
        Version: 3 (0x2)
        Serial Number: 6 (0x6)
        Signature Algorithm: sha1WithRSAEncryption
        Issuer: DC=org, DC=cilogon, C=US, O=CILogon, CN=CILogon Silver CA 1
        Validity
            Not Before: Oct  7 14:01:36 2010 GMT
            Not After : Oct  8 02:06:36 2010 GMT
        Subject: DC=org, DC=cilogon, C=US, O=University of Illinois at Urbana-Champaign, CN=James Basney A122
        Subject Public Key Info:
            Public Key Algorithm: rsaEncryption
            RSA Public Key: (2048 bit)
                Modulus (2048 bit):
                    00:bb:3e:f1:74:0b:d9:92:7b:30:a3:ce:a1:f6:23:
                    42:58:81:33:be:2f:4a:36:42:2a:a8:ff:a6:31:aa:
                    60:3e:50:60:19:7c:bf:7b:28:b8:02:dd:b3:d2:b7:
                    c7:48:ba:ea:06:b7:96:66:b4:7d:80:a2:c8:4e:e1:
                    27:78:9c:4c:c0:e4:14:18:0d:8e:a5:64:2c:44:5b:
                    af:74:40:45:df:62:35:92:5d:60:62:ea:59:cd:af:
                    07:0d:b5:4f:b3:68:70:99:0b:8d:28:94:b3:e5:7c:
                    91:25:95:0d:cc:7b:ef:e9:32:7a:1d:d4:ec:dd:10:
                    5f:5b:ad:ed:89:e9:4d:e1:b4:f2:9f:cd:3e:d7:82:
                    6f:39:99:c9:58:2d:ab:a5:8f:f3:de:43:4e:21:05:
                    f1:c7:5d:07:ca:3c:20:f8:e1:b8:1d:b4:46:26:d2:
                    cc:a8:76:43:24:aa:e4:5e:d7:69:14:c2:75:7e:42:
                    b4:ef:3f:91:ec:c1:2d:b6:3e:02:a8:ce:81:66:9d:
                    2a:b5:da:fa:aa:7b:a7:b1:1e:ac:de:f1:72:d7:da:
                    aa:71:1e:dd:a9:0e:03:fb:d1:62:9e:f2:9f:26:e3:
                    b6:85:17:7d:b0:c6:7e:f7:4a:0d:0f:7a:0f:75:d8:
                    1e:a0:2a:57:ce:87:0b:47:1e:ab:66:ab:6b:a4:4f:
                    8a:c9
                Exponent: 65537 (0x10001)
        X509v3 extensions:
            X509v3 Basic Constraints: critical
                CA:FALSE
            X509v3 Key Usage: critical
                Digital Signature, Key Encipherment, Data Encipherment
            X509v3 Extended Key Usage: 
                TLS Web Client Authentication
            X509v3 Certificate Policies: 
                Policy: 1.3.6.1.4.1.34998.1.1.7
                Policy: 1.2.840.113612.5.2.2.5

            X509v3 CRL Distribution Points: 
                URI:http://crl.cilogon.org/cilogon-silver.crl
                URI:http://crl.doegrids.org/cilogon-silver.crl

            X509v3 Subject Alternative Name: 
                email:jbasney@illinois.edu
    Signature Algorithm: sha1WithRSAEncryption
        1e:56:84:ba:fa:d4:b0:35:96:d2:c0:60:95:39:14:ae:05:c0:
        ff:3e:e9:72:8b:77:0e:2a:4f:32:a6:7a:8a:29:33:ff:ac:07:
        4c:1a:ac:60:e2:28:8d:01:02:23:12:3f:a2:af:8d:65:ff:0b:
        32:c1:e7:e5:9f:2f:16:84:41:6a:45:74:a2:a3:6a:bb:58:e2:
        53:85:33:9f:1a:ee:27:c8:1f:8a:1b:03:92:ba:56:b7:62:d1:
        db:dd:4e:53:65:05:53:15:fa:24:87:5f:1e:15:2c:a9:5b:46:
        48:6e:44:0b:1b:89:26:cc:f5:89:03:65:fe:22:5e:2f:8e:09:
        59:e1:f3:b9:3a:b6:6a:40:aa:60:88:42:95:39:c2:b0:58:f4:
        11:cd:9f:20:1b:62:b2:a4:10:db:b8:b4:54:c0:b8:72:16:c0:
        33:ee:81:cf:ea:9f:f9:24:95:b5:f3:04:ec:19:8e:d6:56:b2:
        da:c5:9d:03:8b:db:bc:a6:f9:58:38:fe:47:bc:1d:de:ea:21:
        8f:67:3c:75:ad:93:1c:c6:6f:90:15:43:31:66:47:4f:4b:09:
        8a:d9:f2:3c:b9:2e:d7:3c:61:b3:cb:29:d9:b5:59:2a:06:9c:
        51:a9:1a:21:a1:e1:fc:b7:51:91:04:91:ad:b5:37:66:f4:ac:
        0e:3b:9a:4c
-----BEGIN CERTIFICATE-----
MIIEYTCCA0mgAwIBAgIBBjANBgkqhkiG9w0BAQUFADBrMRMwEQYKCZImiZPyLGQB
GRYDb3JnMRcwFQYKCZImiZPyLGQBGRYHY2lsb2dvbjELMAkGA1UEBhMCVVMxEDAO
BgNVBAoTB0NJTG9nb24xHDAaBgNVBAMTE0NJTG9nb24gU2lsdmVyIENBIDEwHhcN
MTAxMDA3MTQwMTM2WhcNMTAxMDA4MDIwNjM2WjCBjDETMBEGCgmSJomT8ixkARkT
A29yZzEXMBUGCgmSJomT8ixkARkTB2NpbG9nb24xCzAJBgNVBAYTAlVTMTMwMQYD
VQQKEypVbml2ZXJzaXR5IG9mIElsbGlub2lzIGF0IFVyYmFuYS1DaGFtcGFpZ24x
GjAYBgNVBAMTEUphbWVzIEJhc25leSBBMTIyMIIBIjANBgkqhkiG9w0BAQEFAAOC
AQ8AMIIBCgKCAQEAuz7xdAvZknswo86h9iNCWIEzvi9KNkIqqP+mMapgPlBgGXy/
eyi4At2z0rfHSLrqBreWZrR9gKLITuEneJxMwOQUGA2OpWQsRFuvdEBF32I1kl1g
YupZza8HDbVPs2hwmQuNKJSz5XyRJZUNzHvv6TJ6HdTs3RBfW63tielN4bTyn80+
14JvOZnJWC2rpY/z3kNOIQXxx10Hyjwg+OG4HbRGJtLMqHZDJKrkXtdpFMJ1fkK0
7z+R7MEttj4CqM6BZp0qtdr6qnunsR6s3vFy19qqcR7dqQ4D+9FinvKfJuO2hRd9
sMZ+90oND3oPddgeoCpXzocLRx6rZqtrpE+KyQIDAQABo4HtMIHqMAwGA1UdEwEB
/wQCMAAwDgYDVR0PAQH/BAQDAgSwMBMGA1UdJQQMMAoGCCsGAQUFBwMCMCYGA1Ud
IAQfMB0wDQYLKwYBBAGCkTYBAQcwDAYKKoZIhvdMBQICBTBsBgNVHR8EZTBjMC+g
LaArhilodHRwOi8vY3JsLmNpbG9nb24ub3JnL2NpbG9nb24tc2lsdmVyLmNybDAw
oC6gLIYqaHR0cDovL2NybC5kb2Vncmlkcy5vcmcvY2lsb2dvbi1zaWx2ZXIuY3Js
MB8GA1UdEQQYMBaBFGpiYXNuZXlAaWxsaW5vaXMuZWR1MA0GCSqGSIb3DQEBBQUA
A4IBAQAeVoS6+tSwNZbSwGCVORSuBcD/Pulyi3cOKk8ypnqKKTP/rAdMGqxg4iiN
AQIjEj+ir41l/wsyweflny8WhEFqRXSio2q7WOJThTOfGu4nyB+KGwOSula3YtHb
3U5TZQVTFfokh18eFSypW0ZIbkQLG4kmzPWJA2X+Il4vjglZ4fO5OrZqQKpgiEKV
OcKwWPQRzZ8gG2KypBDbuLRUwLhyFsAz7oHP6p/5JJW18wTsGY7WVrLaxZ0Di9u8
pvlYOP5HvB3e6iGPZzx1rZMcxm+QFUMxZkdPSwmK2fI8uS7XPGGzyynZtVkqBpxR
qRohoeH8t1GRBJGttTdm9KwOO5pM
-----END CERTIFICATE-----
