Certificate:
    Data:
        Version: 3 (0x2)
        Serial Number: 1 (0x1)
        Signature Algorithm: sha1WithRSAEncryption
        Issuer: DC=org, DC=cilogon, C=US, O=CILogon, CN=CILogon Silver CA 1
        Validity
            Not Before: Jun 10 02:17:55 2010 GMT
            Not After : Jun 10 14:22:55 2010 GMT
        Subject: DC=org, DC=cilogon, C=US, O=University of Illinois at Urbana-Champaign, CN=James Basney A122
        Subject Public Key Info:
            Public Key Algorithm: rsaEncryption
            RSA Public Key: (2048 bit)
                Modulus (2048 bit):
                    00:e2:1e:3c:07:15:12:e9:70:7d:52:89:cc:89:12:
                    ce:7d:e3:2b:74:b9:dc:9e:54:02:8d:0c:78:4a:42:
                    a1:04:f5:52:5f:ca:97:de:42:87:57:a8:99:a2:b0:
                    91:1f:c2:81:7c:04:28:c6:df:ea:ab:fe:03:ee:bd:
                    15:f5:de:c7:af:e8:4d:3e:04:c5:37:76:b1:bc:57:
                    3c:b5:f5:af:9c:d0:74:ff:e1:1d:b0:31:75:1c:a9:
                    13:58:f1:de:c0:f4:d8:59:d5:c6:1b:0e:91:c1:c1:
                    de:bf:11:6a:3f:34:26:c7:34:c9:d3:e7:a7:f8:11:
                    e2:22:b1:18:83:12:27:ce:46:47:d2:30:08:7a:e4:
                    8d:1a:80:a9:bb:05:bc:4c:5b:14:52:8d:b0:4b:95:
                    32:0b:fc:27:a1:c2:d6:05:bf:91:e5:a6:99:ef:96:
                    06:7e:e5:16:13:f4:1b:a7:e0:bd:00:dd:75:9a:27:
                    3a:1c:5e:c8:04:78:93:23:04:6f:30:31:d1:75:ac:
                    aa:ea:8d:46:a1:c6:4c:56:eb:0d:40:7d:b0:1e:e5:
                    63:f0:dd:3b:87:e8:37:8f:ee:c0:5e:6d:3a:2d:3d:
                    7e:e3:fd:f3:3c:e4:1a:00:e0:38:40:db:ef:6d:fc:
                    0d:9e:62:55:95:3d:f5:d2:5f:81:4e:23:e8:af:85:
                    15:8f
                Exponent: 65537 (0x10001)
        X509v3 extensions:
            X509v3 Basic Constraints: critical
                CA:FALSE
            X509v3 Key Usage: critical
                Digital Signature, Key Encipherment, Data Encipherment
            X509v3 Extended Key Usage: 
                TLS Web Client Authentication
            X509v3 Certificate Policies: 
                Policy: 1.3.6.1.4.1.34998.1.1.2
                Policy: 1.2.840.113612.5.2.2.5

            X509v3 CRL Distribution Points: 
                URI:http://crl.cilogon.org/cilogon-silver.crl
                URI:http://crl.doegrids.org/cilogon-silver.crl

            X509v3 Subject Alternative Name: 
                email:jbasney@illinois.edu
    Signature Algorithm: sha1WithRSAEncryption
        ce:47:0d:8d:49:f0:66:7a:22:6c:e0:cc:cd:c3:ef:29:75:b5:
        fe:49:d3:84:bd:ac:ab:09:a3:91:50:59:9e:98:a2:06:a8:e1:
        b5:f4:5e:7c:f2:da:77:d3:f1:29:74:17:8c:5d:5a:e3:f8:33:
        a8:aa:6d:03:51:b0:56:a9:14:2a:2b:3a:5c:5a:65:5a:58:7c:
        ce:47:67:18:96:f6:cd:8a:33:ab:34:33:52:ea:7f:21:3e:52:
        f6:31:10:c0:3b:a8:7a:bb:e1:4e:e0:5f:85:3e:47:57:81:84:
        97:cc:a2:07:f3:c3:77:8c:01:f6:4a:73:4e:91:17:c6:4e:6f:
        4c:ee:18:f5:21:c4:4e:d5:71:f6:77:62:41:27:bc:e0:01:e6:
        eb:56:e7:e1:d0:13:4c:ee:97:8d:dd:46:f0:2d:9b:b8:0a:3e:
        43:b7:73:28:84:f8:53:c9:e3:da:76:67:f7:b9:62:71:4e:01:
        08:c7:06:bb:9c:8d:bb:04:9c:11:4c:93:be:e9:30:fc:3f:48:
        c3:2c:75:8d:93:52:ae:6a:81:f2:a4:d3:be:b1:03:b4:e8:e8:
        34:fe:b3:be:95:8a:03:65:7a:4b:54:20:88:0e:47:9a:c0:7a:
        6f:57:c9:81:69:38:47:74:e3:4d:24:54:83:a9:da:9c:f4:2f:
        64:0e:a7:90
-----BEGIN CERTIFICATE-----
MIIEYTCCA0mgAwIBAgIBATANBgkqhkiG9w0BAQUFADBrMRMwEQYKCZImiZPyLGQB
GRYDb3JnMRcwFQYKCZImiZPyLGQBGRYHY2lsb2dvbjELMAkGA1UEBhMCVVMxEDAO
BgNVBAoTB0NJTG9nb24xHDAaBgNVBAMTE0NJTG9nb24gU2lsdmVyIENBIDEwHhcN
MTAwNjEwMDIxNzU1WhcNMTAwNjEwMTQyMjU1WjCBjDETMBEGCgmSJomT8ixkARkT
A29yZzEXMBUGCgmSJomT8ixkARkTB2NpbG9nb24xCzAJBgNVBAYTAlVTMTMwMQYD
VQQKEypVbml2ZXJzaXR5IG9mIElsbGlub2lzIGF0IFVyYmFuYS1DaGFtcGFpZ24x
GjAYBgNVBAMTEUphbWVzIEJhc25leSBBMTIyMIIBIjANBgkqhkiG9w0BAQEFAAOC
AQ8AMIIBCgKCAQEA4h48BxUS6XB9UonMiRLOfeMrdLncnlQCjQx4SkKhBPVSX8qX
3kKHV6iZorCRH8KBfAQoxt/qq/4D7r0V9d7Hr+hNPgTFN3axvFc8tfWvnNB0/+Ed
sDF1HKkTWPHewPTYWdXGGw6RwcHevxFqPzQmxzTJ0+en+BHiIrEYgxInzkZH0jAI
euSNGoCpuwW8TFsUUo2wS5UyC/wnocLWBb+R5aaZ75YGfuUWE/Qbp+C9AN11mic6
HF7IBHiTIwRvMDHRdayq6o1GocZMVusNQH2wHuVj8N07h+g3j+7AXm06LT1+4/3z
POQaAOA4QNvvbfwNnmJVlT310l+BTiPor4UVjwIDAQABo4HtMIHqMAwGA1UdEwEB
/wQCMAAwDgYDVR0PAQH/BAQDAgSwMBMGA1UdJQQMMAoGCCsGAQUFBwMCMCYGA1Ud
IAQfMB0wDQYLKwYBBAGCkTYBAQIwDAYKKoZIhvdMBQICBTBsBgNVHR8EZTBjMC+g
LaArhilodHRwOi8vY3JsLmNpbG9nb24ub3JnL2NpbG9nb24tc2lsdmVyLmNybDAw
oC6gLIYqaHR0cDovL2NybC5kb2Vncmlkcy5vcmcvY2lsb2dvbi1zaWx2ZXIuY3Js
MB8GA1UdEQQYMBaBFGpiYXNuZXlAaWxsaW5vaXMuZWR1MA0GCSqGSIb3DQEBBQUA
A4IBAQDORw2NSfBmeiJs4MzNw+8pdbX+SdOEvayrCaORUFmemKIGqOG19F588tp3
0/EpdBeMXVrj+DOoqm0DUbBWqRQqKzpcWmVaWHzOR2cYlvbNijOrNDNS6n8hPlL2
MRDAO6h6u+FO4F+FPkdXgYSXzKIH88N3jAH2SnNOkRfGTm9M7hj1IcRO1XH2d2JB
J7zgAebrVufh0BNM7peN3UbwLZu4Cj5Dt3MohPhTyePadmf3uWJxTgEIxwa7nI27
BJwRTJO+6TD8P0jDLHWNk1KuaoHypNO+sQO06Og0/rO+lYoDZXpLVCCIDkeawHpv
V8mBaThHdONNJFSDqdqc9C9kDqeQ
-----END CERTIFICATE-----
