Certificate:
    Data:
        Version: 3 (0x2)
        Serial Number: 4 (0x4)
        Signature Algorithm: sha1WithRSAEncryption
        Issuer: DC=org, DC=cilogon, C=US, O=CILogon, CN=CILogon Silver CA 1
        Validity
            Not Before: Sep 28 18:18:05 2010 GMT
            Not After : Sep 29 06:23:05 2010 GMT
        Subject: DC=org, DC=cilogon, C=US, O=University of Illinois at Urbana-Champaign, CN=James Basney A122
        Subject Public Key Info:
            Public Key Algorithm: rsaEncryption
            RSA Public Key: (2048 bit)
                Modulus (2048 bit):
                    00:dd:2c:58:f1:20:9a:c8:77:2a:9d:6e:c6:75:9e:
                    97:31:d0:f8:9c:8a:50:dc:ad:f1:72:4a:20:64:c8:
                    1b:f5:47:88:41:8f:f8:55:f8:26:6f:b8:68:06:e5:
                    15:3c:2f:3e:5b:0c:55:f3:0e:7c:64:12:5f:d1:51:
                    dc:31:a4:17:5a:32:6f:e3:ec:42:b9:6f:07:5e:10:
                    74:8c:e9:f8:39:4a:0b:3f:19:ae:a6:e4:06:c3:f9:
                    d8:bf:85:01:00:4f:9c:15:ca:48:22:2d:d7:bc:c9:
                    c0:c9:9f:93:2b:69:a5:40:4c:69:a6:f2:25:d5:04:
                    9f:be:39:44:da:4c:c7:50:7a:29:2e:71:2a:10:69:
                    a4:8f:9a:3b:56:c7:7f:d9:2f:ab:b1:1d:3c:29:e3:
                    65:e4:00:95:79:48:37:82:30:93:e6:1e:32:8d:a3:
                    26:9f:89:7a:ef:d2:99:bf:7d:9e:79:79:f0:c5:07:
                    aa:99:df:ea:d6:91:8b:81:fb:03:60:0c:80:95:ff:
                    1d:82:9b:45:8b:03:c0:2e:77:1d:33:26:f2:bf:78:
                    d6:c6:2d:a4:a2:f8:15:d4:be:12:e7:c2:b3:ff:1d:
                    f7:6e:34:47:46:93:9d:d6:fa:6b:3c:b2:38:99:15:
                    ab:2f:83:ac:92:ea:64:34:4c:92:3d:ad:6a:f4:60:
                    97:49
                Exponent: 65537 (0x10001)
        X509v3 extensions:
            X509v3 Basic Constraints: critical
                CA:FALSE
            X509v3 Key Usage: critical
                Digital Signature, Key Encipherment, Data Encipherment
            X509v3 Extended Key Usage: 
                TLS Web Client Authentication
            X509v3 Certificate Policies: 
                Policy: 1.3.6.1.4.1.34998.1.1.5
                Policy: 1.2.840.113612.5.2.2.3

            X509v3 CRL Distribution Points: 
                URI:http://crl.cilogon.org/cilogon-silver.crl
                URI:http://crl.doegrids.org/cilogon-silver.crl

            X509v3 Subject Alternative Name: 
                email:jbasney@illinois.edu
    Signature Algorithm: sha1WithRSAEncryption
        c5:96:09:d1:66:dc:c7:58:e3:f8:ff:c2:0a:4d:f8:ef:65:02:
        eb:13:5f:01:38:db:7a:1f:12:35:17:62:f2:35:1f:9c:8f:3a:
        28:05:09:d9:6c:db:42:c5:10:56:b3:c8:ad:d0:7b:51:33:ff:
        d4:dc:c8:92:29:7d:46:40:14:83:bf:58:72:42:6f:b4:d4:8e:
        21:a3:11:f8:52:8a:c8:f3:5d:36:4d:e0:fc:b2:ed:04:3f:96:
        e6:1e:80:32:b1:d8:bd:bf:bd:b9:9f:9f:74:3a:dc:ac:f0:ec:
        16:35:28:08:f3:2f:e0:8b:ee:f5:f3:21:41:04:4b:52:9f:e3:
        70:43:1c:14:44:75:a3:a7:c9:6a:af:01:ea:7e:ee:c7:57:c7:
        e2:4b:13:00:97:6f:b2:28:51:56:01:df:34:c1:4b:14:5e:16:
        f7:41:45:91:e4:d8:f5:9c:83:3e:76:95:aa:6e:74:82:d1:df:
        0c:eb:83:42:0a:22:47:a0:68:ab:83:f6:06:31:e2:a7:23:30:
        d7:f8:3d:30:c6:f6:d7:a6:7d:c0:f8:83:d4:6c:21:c4:0b:51:
        e9:48:25:98:a9:d7:5a:e2:b2:2c:3f:8d:7d:04:c5:8a:0c:2b:
        38:47:69:7e:92:d0:93:43:fd:5e:2e:6f:19:b6:6a:e5:28:2c:
        36:6c:91:3c
-----BEGIN CERTIFICATE-----
MIIEYTCCA0mgAwIBAgIBBDANBgkqhkiG9w0BAQUFADBrMRMwEQYKCZImiZPyLGQB
GRYDb3JnMRcwFQYKCZImiZPyLGQBGRYHY2lsb2dvbjELMAkGA1UEBhMCVVMxEDAO
BgNVBAoTB0NJTG9nb24xHDAaBgNVBAMTE0NJTG9nb24gU2lsdmVyIENBIDEwHhcN
MTAwOTI4MTgxODA1WhcNMTAwOTI5MDYyMzA1WjCBjDETMBEGCgmSJomT8ixkARkT
A29yZzEXMBUGCgmSJomT8ixkARkTB2NpbG9nb24xCzAJBgNVBAYTAlVTMTMwMQYD
VQQKEypVbml2ZXJzaXR5IG9mIElsbGlub2lzIGF0IFVyYmFuYS1DaGFtcGFpZ24x
GjAYBgNVBAMTEUphbWVzIEJhc25leSBBMTIyMIIBIjANBgkqhkiG9w0BAQEFAAOC
AQ8AMIIBCgKCAQEA3SxY8SCayHcqnW7GdZ6XMdD4nIpQ3K3xckogZMgb9UeIQY/4
Vfgmb7hoBuUVPC8+WwxV8w58ZBJf0VHcMaQXWjJv4+xCuW8HXhB0jOn4OUoLPxmu
puQGw/nYv4UBAE+cFcpIIi3XvMnAyZ+TK2mlQExppvIl1QSfvjlE2kzHUHopLnEq
EGmkj5o7Vsd/2S+rsR08KeNl5ACVeUg3gjCT5h4yjaMmn4l679KZv32eeXnwxQeq
md/q1pGLgfsDYAyAlf8dgptFiwPALncdMybyv3jWxi2kovgV1L4S58Kz/x33bjRH
RpOd1vprPLI4mRWrL4OskupkNEySPa1q9GCXSQIDAQABo4HtMIHqMAwGA1UdEwEB
/wQCMAAwDgYDVR0PAQH/BAQDAgSwMBMGA1UdJQQMMAoGCCsGAQUFBwMCMCYGA1Ud
IAQfMB0wDQYLKwYBBAGCkTYBAQUwDAYKKoZIhvdMBQICAzBsBgNVHR8EZTBjMC+g
LaArhilodHRwOi8vY3JsLmNpbG9nb24ub3JnL2NpbG9nb24tc2lsdmVyLmNybDAw
oC6gLIYqaHR0cDovL2NybC5kb2Vncmlkcy5vcmcvY2lsb2dvbi1zaWx2ZXIuY3Js
MB8GA1UdEQQYMBaBFGpiYXNuZXlAaWxsaW5vaXMuZWR1MA0GCSqGSIb3DQEBBQUA
A4IBAQDFlgnRZtzHWOP4/8IKTfjvZQLrE18BONt6HxI1F2LyNR+cjzooBQnZbNtC
xRBWs8it0HtRM//U3MiSKX1GQBSDv1hyQm+01I4hoxH4UorI8102TeD8su0EP5bm
HoAysdi9v725n590Otys8OwWNSgI8y/gi+718yFBBEtSn+NwQxwURHWjp8lqrwHq
fu7HV8fiSxMAl2+yKFFWAd80wUsUXhb3QUWR5Nj1nIM+dpWqbnSC0d8M64NCCiJH
oGirg/YGMeKnIzDX+D0wxvbXpn3A+IPUbCHEC1HpSCWYqdda4rIsP419BMWKDCs4
R2l+ktCTQ/1eLm8ZtmrlKCw2bJE8
-----END CERTIFICATE-----
