Certificate:
    Data:
        Version: 3 (0x2)
        Serial Number: 20 (0x14)
        Signature Algorithm: sha256WithRSAEncryption
        Issuer: DC=org, DC=cilogon, C=US, O=CILogon, CN=CILogon Globus CA 1
        Validity
            Not Before: Sep 12 19:21:08 2012 GMT
            Not After : Sep 13 07:26:08 2012 GMT
        Subject: DC=org, DC=cilogon, C=US, O=Globus, CN=Jim Basney jbasney@globus.org
        Subject Public Key Info:
            Public Key Algorithm: rsaEncryption
            RSA Public Key: (2048 bit)
                Modulus (2048 bit):
                    00:c5:38:14:b6:95:fb:0e:42:53:b5:7b:73:e7:4d:
                    32:96:a9:db:60:db:0b:97:a8:f4:fb:cd:40:0a:f6:
                    08:84:06:b5:9c:75:bd:07:72:4a:4e:2f:b3:10:34:
                    30:c7:2e:c2:22:98:f6:7a:36:1c:f6:e3:92:96:a6:
                    b4:ff:25:b2:e1:77:bc:9a:ed:8f:ee:56:a9:30:17:
                    57:64:fb:d6:eb:23:7e:fc:58:f7:2b:e1:65:c9:c1:
                    e5:f7:ca:03:33:78:07:74:c9:f2:f2:0c:7b:98:79:
                    65:56:31:82:b4:90:ce:89:30:71:65:d8:7a:26:04:
                    2d:53:b0:18:b2:ba:4c:f6:14:d0:c9:4f:74:c7:2a:
                    76:17:4b:65:bd:c8:21:f4:ed:e8:b4:f4:67:f1:2b:
                    74:27:d0:89:59:4c:7e:9c:9c:ab:b5:e3:74:22:30:
                    f7:3a:22:7f:17:c6:9f:51:57:93:6f:6c:bd:d9:35:
                    27:95:8b:62:11:53:8f:ad:10:51:fa:3e:49:af:3f:
                    3a:ee:23:46:8b:57:53:5e:c9:26:c6:9a:e8:e4:0d:
                    6a:40:03:08:f2:23:50:f7:55:d3:dc:ae:52:db:45:
                    d6:2d:b1:a7:be:2b:2b:be:14:12:ad:1d:23:07:62:
                    03:4c:10:c7:b0:20:ba:ee:71:d0:0f:c4:54:59:da:
                    e6:67
                Exponent: 65537 (0x10001)
        X509v3 extensions:
            X509v3 Basic Constraints: critical
                CA:FALSE
            X509v3 Key Usage: critical
                Digital Signature, Key Encipherment, Data Encipherment
            X509v3 Extended Key Usage: 
                TLS Web Client Authentication
            X509v3 Certificate Policies: 
                Policy: 1.3.6.1.4.1.34998.1.5

            X509v3 CRL Distribution Points: 
                URI:http://crl.cilogon.org/cilogon-globus.crl

            X509v3 Subject Alternative Name: 
                email:jbasney@illinois.edu
    Signature Algorithm: sha256WithRSAEncryption
        4b:a1:41:c9:28:cb:bb:30:56:96:73:62:ae:42:a6:d1:22:0e:
        fa:55:98:c8:de:ec:ed:2a:cc:de:18:f6:90:cd:da:81:db:25:
        b7:a9:87:e4:59:29:64:78:dc:a5:56:e2:bc:c7:a7:51:14:9c:
        17:c7:b5:40:80:2c:1d:3f:8a:5f:56:62:3d:3d:cd:81:dc:cd:
        6c:dd:3a:cc:bf:c2:4a:74:e1:c7:02:e6:a4:f2:40:ce:e2:72:
        f4:73:d3:df:ef:3b:5f:15:7d:e4:7c:7e:dd:99:2a:e5:8d:d5:
        f8:0c:f7:2e:c4:db:e1:81:99:3e:96:66:b6:fc:17:d7:c2:ed:
        92:ab:8e:e7:94:af:95:34:ad:73:df:61:54:b4:83:69:5a:95:
        8d:e5:3e:13:84:15:0c:57:0d:6b:c3:6f:c7:80:15:da:61:45:
        01:6e:d4:0c:a0:0e:06:8c:29:37:52:97:b5:df:4f:1e:59:a2:
        93:90:93:38:04:ab:9f:3e:03:d1:1a:96:55:49:ee:e0:52:41:
        a3:2e:7a:ac:e2:33:1c:7d:61:29:c8:37:4a:14:a2:3b:47:34:
        52:8c:3c:61:f4:f5:13:43:62:31:ce:7c:5c:a8:cd:e1:e6:98:
        1e:ea:b7:25:07:58:d7:f7:a2:7b:9d:4f:ef:04:04:17:e0:03:
        df:ad:aa:89
-----BEGIN CERTIFICATE-----
MIIEBzCCAu+gAwIBAgIBFDANBgkqhkiG9w0BAQsFADBrMRMwEQYKCZImiZPyLGQB
GRYDb3JnMRcwFQYKCZImiZPyLGQBGRYHY2lsb2dvbjELMAkGA1UEBhMCVVMxEDAO
BgNVBAoTB0NJTG9nb24xHDAaBgNVBAMTE0NJTG9nb24gR2xvYnVzIENBIDEwHhcN
MTIwOTEyMTkyMTA4WhcNMTIwOTEzMDcyNjA4WjB0MRMwEQYKCZImiZPyLGQBGRMD
b3JnMRcwFQYKCZImiZPyLGQBGRMHY2lsb2dvbjELMAkGA1UEBhMCVVMxDzANBgNV
BAoTBkdsb2J1czEmMCQGA1UEAxYdSmltIEJhc25leSBqYmFzbmV5QGdsb2J1cy5v
cmcwggEiMA0GCSqGSIb3DQEBAQUAA4IBDwAwggEKAoIBAQDFOBS2lfsOQlO1e3Pn
TTKWqdtg2wuXqPT7zUAK9giEBrWcdb0HckpOL7MQNDDHLsIimPZ6Nhz245KWprT/
JbLhd7ya7Y/uVqkwF1dk+9brI378WPcr4WXJweX3ygMzeAd0yfLyDHuYeWVWMYK0
kM6JMHFl2HomBC1TsBiyukz2FNDJT3THKnYXS2W9yCH07ei09GfxK3Qn0IlZTH6c
nKu143QiMPc6In8Xxp9RV5NvbL3ZNSeVi2IRU4+tEFH6PkmvPzruI0aLV1NeySbG
mujkDWpAAwjyI1D3VdPcrlLbRdYtsae+Kyu+FBKtHSMHYgNMEMewILrucdAPxFRZ
2uZnAgMBAAGjgawwgakwDAYDVR0TAQH/BAIwADAOBgNVHQ8BAf8EBAMCBLAwEwYD
VR0lBAwwCgYIKwYBBQUHAwIwFwYDVR0gBBAwDjAMBgorBgEEAYKRNgEFMDoGA1Ud
HwQzMDEwL6AtoCuGKWh0dHA6Ly9jcmwuY2lsb2dvbi5vcmcvY2lsb2dvbi1nbG9i
dXMuY3JsMB8GA1UdEQQYMBaBFGpiYXNuZXlAaWxsaW5vaXMuZWR1MA0GCSqGSIb3
DQEBCwUAA4IBAQBLoUHJKMu7MFaWc2KuQqbRIg76VZjI3uztKszeGPaQzdqB2yW3
qYfkWSlkeNylVuK8x6dRFJwXx7VAgCwdP4pfVmI9Pc2B3M1s3TrMv8JKdOHHAuak
8kDO4nL0c9Pf7ztfFX3kfH7dmSrljdX4DPcuxNvhgZk+lma2/BfXwu2Sq47nlK+V
NK1z32FUtINpWpWN5T4ThBUMVw1rw2/HgBXaYUUBbtQMoA4GjCk3Upe1308eWaKT
kJM4BKufPgPRGpZVSe7gUkGjLnqs4jMcfWEpyDdKFKI7RzRSjDxh9PUTQ2Ixznxc
qM3h5pge6rclB1jX96J7nU/vBAQX4APfraqJ
-----END CERTIFICATE-----
